target datalayout = "e-m:e-p270:32:32-p271:32:32-p272:64:64-i64:64-i128:128-f80:128-n8:16:32:64-S128"
target triple = "x86_64-pc-linux-gnu"

%struct.CrxSubband = type { ptr, i64, ptr, i16, i16, i32, i32, i32, i32, i8, i32, i64, i64, i16, i16, i16, i16, i16 }
%struct.CrxQStep = type { ptr, i32, i32 }
%struct.CrxWaveletTransform = type { ptr, ptr, ptr, ptr, [8 x ptr], i16, i16, i8, i16, i16 }
%struct.CrxPlaneComp = type { ptr, ptr, ptr, i8, i64, i32, i8, i32, i8 }

; Function Attrs: mustprogress uwtable
define noundef i32 @_Z21crxIdwt53FilterDecodeP12CrxPlaneCompiP8CrxQStep(ptr noundef %0, i32 noundef %1, ptr noundef %2) #0 {
  %4 = alloca i32, align 4
  %5 = alloca ptr, align 8
  %6 = alloca i32, align 4
  %7 = alloca ptr, align 8
  %8 = alloca ptr, align 8
  %9 = alloca ptr, align 8
  %10 = alloca i32, align 4
  store ptr %0, ptr %5, align 8, !tbaa !105
  store i32 %1, ptr %6, align 4, !tbaa !20
  store ptr %2, ptr %7, align 8, !tbaa !74
  %11 = load ptr, ptr %5, align 8, !tbaa !105
  %12 = getelementptr inbounds nuw %struct.CrxPlaneComp, ptr %11, i32 0, i32 2
  %13 = load ptr, ptr %12, align 8, !tbaa !107
  %14 = load i32, ptr %6, align 4, !tbaa !20
  %15 = sext i32 %14 to i64
  %16 = getelementptr inbounds %struct.CrxWaveletTransform, ptr %13, i64 %15
  %17 = getelementptr inbounds nuw %struct.CrxWaveletTransform, ptr %16, i32 0, i32 6
  %18 = load i16, ptr %17, align 2, !tbaa !110
  %19 = icmp ne i16 %18, 0
  br i1 %19, label %20, label %21

20:                                               ; preds = %3
  store i32 0, ptr %4, align 4
  br label %147

21:                                               ; preds = %3
  call void @llvm.lifetime.start.p0(i64 8, ptr %8) #19
  %22 = load ptr, ptr %5, align 8, !tbaa !105
  %23 = getelementptr inbounds nuw %struct.CrxPlaneComp, ptr %22, i32 0, i32 1
  %24 = load ptr, ptr %23, align 8, !tbaa !111
  %25 = load i32, ptr %6, align 4, !tbaa !20
  %26 = mul nsw i32 3, %25
  %27 = sext i32 %26 to i64
  %28 = getelementptr inbounds %struct.CrxSubband, ptr %24, i64 %27
  store ptr %28, ptr %8, align 8, !tbaa !68
  call void @llvm.lifetime.start.p0(i64 8, ptr %9) #19
  %29 = load ptr, ptr %7, align 8, !tbaa !74
  %30 = icmp ne ptr %29, null
  br i1 %30, label %31, label %36

31:                                               ; preds = %21
  %32 = load ptr, ptr %7, align 8, !tbaa !74
  %33 = load i32, ptr %6, align 4, !tbaa !20
  %34 = sext i32 %33 to i64
  %35 = getelementptr inbounds %struct.CrxQStep, ptr %32, i64 %34
  br label %37

36:                                               ; preds = %21
  br label %37

37:                                               ; preds = %36, %31
  %38 = phi ptr [ %35, %31 ], [ null, %36 ]
  store ptr %38, ptr %9, align 8, !tbaa !74
  %39 = load ptr, ptr %5, align 8, !tbaa !105
  %40 = getelementptr inbounds nuw %struct.CrxPlaneComp, ptr %39, i32 0, i32 2
  %41 = load ptr, ptr %40, align 8, !tbaa !107
  %42 = load i32, ptr %6, align 4, !tbaa !20
  %43 = sext i32 %42 to i64
  %44 = getelementptr inbounds %struct.CrxWaveletTransform, ptr %41, i64 %43
  %45 = getelementptr inbounds nuw %struct.CrxWaveletTransform, ptr %44, i32 0, i32 8
  %46 = load i16, ptr %45, align 2, !tbaa !112
  %47 = sext i16 %46 to i32
  %48 = sub nsw i32 %47, 3
  %49 = load ptr, ptr %5, align 8, !tbaa !105
  %50 = getelementptr inbounds nuw %struct.CrxPlaneComp, ptr %49, i32 0, i32 2
  %51 = load ptr, ptr %50, align 8, !tbaa !107
  %52 = load i32, ptr %6, align 4, !tbaa !20
  %53 = sext i32 %52 to i64
  %54 = getelementptr inbounds %struct.CrxWaveletTransform, ptr %51, i64 %53
  %55 = getelementptr inbounds nuw %struct.CrxWaveletTransform, ptr %54, i32 0, i32 5
  %56 = load i16, ptr %55, align 8, !tbaa !113
  %57 = sext i16 %56 to i32
  %58 = icmp sle i32 %48, %57
  br i1 %58, label %59, label %106

59:                                               ; preds = %37
  %60 = load ptr, ptr %5, align 8, !tbaa !105
  %61 = getelementptr inbounds nuw %struct.CrxPlaneComp, ptr %60, i32 0, i32 8
  %62 = load i8, ptr %61, align 4, !tbaa !114
  %63 = sext i8 %62 to i32
  %64 = and i32 %63, 4
  %65 = icmp ne i32 %64, 0
  br i1 %65, label %106, label %66

66:                                               ; preds = %59
  %67 = load ptr, ptr %5, align 8, !tbaa !105
  %68 = getelementptr inbounds nuw %struct.CrxPlaneComp, ptr %67, i32 0, i32 2
  %69 = load ptr, ptr %68, align 8, !tbaa !107
  %70 = load i32, ptr %6, align 4, !tbaa !20
  %71 = sext i32 %70 to i64
  %72 = getelementptr inbounds %struct.CrxWaveletTransform, ptr %69, i64 %71
  %73 = getelementptr inbounds nuw %struct.CrxWaveletTransform, ptr %72, i32 0, i32 8
  %74 = load i16, ptr %73, align 2, !tbaa !112
  %75 = sext i16 %74 to i32
  %76 = and i32 %75, 1
  %77 = icmp ne i32 %76, 0
  br i1 %77, label %78, label %105

78:                                               ; preds = %66
  %79 = load i32, ptr %6, align 4, !tbaa !20
  %80 = icmp ne i32 %79, 0
  br i1 %80, label %81, label %90

81:                                               ; preds = %78
  %82 = load ptr, ptr %5, align 8, !tbaa !105
  %83 = load i32, ptr %6, align 4, !tbaa !20
  %84 = sub nsw i32 %83, 1
  %85 = load ptr, ptr %7, align 8, !tbaa !74
  %86 = call noundef i32 @_Z21crxIdwt53FilterDecodeP12CrxPlaneCompiP8CrxQStep(ptr noundef %82, i32 noundef %84, ptr noundef %85)
  %87 = icmp ne i32 %86, 0
  br i1 %87, label %88, label %89

88:                                               ; preds = %81
  store i32 -1, ptr %4, align 4
  store i32 1, ptr %10, align 4
  br label %146

89:                                               ; preds = %81
  br label %97

90:                                               ; preds = %78
  %91 = load ptr, ptr %8, align 8, !tbaa !68
  %92 = load ptr, ptr %9, align 8, !tbaa !74
  %93 = call noundef i32 @_Z30crxDecodeLineWithIQuantizationP10CrxSubbandP8CrxQStep(ptr noundef %91, ptr noundef %92)
  %94 = icmp ne i32 %93, 0
  br i1 %94, label %95, label %96

95:                                               ; preds = %90
  store i32 -1, ptr %4, align 4
  store i32 1, ptr %10, align 4
  br label %146

96:                                               ; preds = %90
  br label %97

97:                                               ; preds = %96, %89
  %98 = load ptr, ptr %8, align 8, !tbaa !68
  %99 = getelementptr inbounds %struct.CrxSubband, ptr %98, i64 1
  %100 = load ptr, ptr %9, align 8, !tbaa !74
  %101 = call noundef i32 @_Z30crxDecodeLineWithIQuantizationP10CrxSubbandP8CrxQStep(ptr noundef %99, ptr noundef %100)
  %102 = icmp ne i32 %101, 0
  br i1 %102, label %103, label %104

103:                                              ; preds = %97
  store i32 -1, ptr %4, align 4
  store i32 1, ptr %10, align 4
  br label %146

104:                                              ; preds = %97
  br label %105

105:                                              ; preds = %104, %66
  br label %145

106:                                              ; preds = %59, %37
  %107 = load i32, ptr %6, align 4, !tbaa !20
  %108 = icmp ne i32 %107, 0
  br i1 %108, label %109, label %118

109:                                              ; preds = %106
  %110 = load ptr, ptr %5, align 8, !tbaa !105
  %111 = load i32, ptr %6, align 4, !tbaa !20
  %112 = sub nsw i32 %111, 1
  %113 = load ptr, ptr %7, align 8, !tbaa !74
  %114 = call noundef i32 @_Z21crxIdwt53FilterDecodeP12CrxPlaneCompiP8CrxQStep(ptr noundef %110, i32 noundef %112, ptr noundef %113)
  %115 = icmp ne i32 %114, 0
  br i1 %115, label %116, label %117

116:                                              ; preds = %109
  store i32 -1, ptr %4, align 4
  store i32 1, ptr %10, align 4
  br label %146

117:                                              ; preds = %109
  br label %125

118:                                              ; preds = %106
  %119 = load ptr, ptr %8, align 8, !tbaa !68
  %120 = load ptr, ptr %9, align 8, !tbaa !74
  %121 = call noundef i32 @_Z30crxDecodeLineWithIQuantizationP10CrxSubbandP8CrxQStep(ptr noundef %119, ptr noundef %120)
  %122 = icmp ne i32 %121, 0
  br i1 %122, label %123, label %124

123:                                              ; preds = %118
  store i32 -1, ptr %4, align 4
  store i32 1, ptr %10, align 4
  br label %146

124:                                              ; preds = %118
  br label %125

125:                                              ; preds = %124, %117
  %126 = load ptr, ptr %8, align 8, !tbaa !68
  %127 = getelementptr inbounds %struct.CrxSubband, ptr %126, i64 1
  %128 = load ptr, ptr %9, align 8, !tbaa !74
  %129 = call noundef i32 @_Z30crxDecodeLineWithIQuantizationP10CrxSubbandP8CrxQStep(ptr noundef %127, ptr noundef %128)
  %130 = icmp ne i32 %129, 0
  br i1 %130, label %143, label %131

131:                                              ; preds = %125
  %132 = load ptr, ptr %8, align 8, !tbaa !68
  %133 = getelementptr inbounds %struct.CrxSubband, ptr %132, i64 2
  %134 = load ptr, ptr %9, align 8, !tbaa !74
  %135 = call noundef i32 @_Z30crxDecodeLineWithIQuantizationP10CrxSubbandP8CrxQStep(ptr noundef %133, ptr noundef %134)
  %136 = icmp ne i32 %135, 0
  br i1 %136, label %143, label %137

137:                                              ; preds = %131
  %138 = load ptr, ptr %8, align 8, !tbaa !68
  %139 = getelementptr inbounds %struct.CrxSubband, ptr %138, i64 3
  %140 = load ptr, ptr %9, align 8, !tbaa !74
  %141 = call noundef i32 @_Z30crxDecodeLineWithIQuantizationP10CrxSubbandP8CrxQStep(ptr noundef %139, ptr noundef %140)
  %142 = icmp ne i32 %141, 0
  br i1 %142, label %143, label %144

143:                                              ; preds = %137, %131, %125
  store i32 -1, ptr %4, align 4
  store i32 1, ptr %10, align 4
  br label %146

144:                                              ; preds = %137
  br label %145

145:                                              ; preds = %144, %105
  store i32 0, ptr %4, align 4
  store i32 1, ptr %10, align 4
  br label %146

146:                                              ; preds = %145, %143, %123, %116, %103, %95, %88
  call void @llvm.lifetime.end.p0(i64 8, ptr %9) #19
  call void @llvm.lifetime.end.p0(i64 8, ptr %8) #19
  br label %147

147:                                              ; preds = %146, %20
  %148 = load i32, ptr %4, align 4
  ret i32 %148
}