; Function Attrs: mustprogress uwtable
define noundef range(i32 -1, 1) i32 @_Z21crxIdwt53FilterDecodeP12CrxPlaneCompiP8CrxQStep(ptr noundef %0, i32 noundef %1, ptr noundef %2) local_unnamed_addr #0 {
  %4 = getelementptr inbounds nuw i8, ptr %0, i64 16
  %5 = load ptr, ptr %4, align 8, !tbaa !99
  %6 = sext i32 %1 to i64
  %7 = getelementptr inbounds %struct.CrxWaveletTransform, ptr %5, i64 %6
  %8 = getelementptr inbounds nuw i8, ptr %7, i64 98
  %9 = load i16, ptr %8, align 2, !tbaa !104
  %.not = icmp eq i16 %9, 0
  br i1 %.not, label %10, label %56

10:                                               ; preds = %3
  %11 = getelementptr inbounds nuw i8, ptr %0, i64 8
  %12 = load ptr, ptr %11, align 8, !tbaa !106
  %13 = mul nsw i32 %1, 3
  %14 = sext i32 %13 to i64
  %15 = getelementptr inbounds %struct.CrxSubband, ptr %12, i64 %14
  %.not36 = icmp eq ptr %2, null
  %16 = getelementptr inbounds %struct.CrxQStep, ptr %2, i64 %6
  %17 = select i1 %.not36, ptr null, ptr %16
  %18 = getelementptr inbounds nuw i8, ptr %7, i64 102
  %19 = load i16, ptr %18, align 2, !tbaa !107
  %20 = sext i16 %19 to i32
  %21 = add nsw i32 %20, -3
  %22 = getelementptr inbounds nuw i8, ptr %7, i64 96
  %23 = load i16, ptr %22, align 8, !tbaa !108
  %24 = sext i16 %23 to i32
  %.not37 = icmp sgt i32 %21, %24
  br i1 %.not37, label %40, label %25

25:                                               ; preds = %10
  %26 = getelementptr inbounds nuw i8, ptr %0, i64 52
  %27 = load i8, ptr %26, align 4, !tbaa !109
  %28 = and i8 %27, 4
  %.not38 = icmp eq i8 %28, 0
  br i1 %.not38, label %29, label %40

29:                                               ; preds = %25
  %30 = and i16 %19, 1
  %.not39 = icmp eq i16 %30, 0
  br i1 %.not39, label %55, label %31

31:                                               ; preds = %29
  %.not40 = icmp eq i32 %1, 0
  br i1 %.not40, label %35, label %32

32:                                               ; preds = %31
  %33 = add nsw i32 %1, -1
  %34 = tail call noundef i32 @_Z21crxIdwt53FilterDecodeP12CrxPlaneCompiP8CrxQStep(ptr noundef nonnull %0, i32 noundef %33, ptr noundef %2)
  %.not42 = icmp eq i32 %34, 0
  br i1 %.not42, label %37, label %56

35:                                               ; preds = %31
  %36 = tail call noundef i32 @_Z30crxDecodeLineWithIQuantizationP10CrxSubbandP8CrxQStep(ptr noundef %15, ptr noundef %17)
  %.not41 = icmp eq i32 %36, 0
  br i1 %.not41, label %37, label %56

37:                                               ; preds = %35, %32
  %38 = getelementptr inbounds nuw i8, ptr %15, i64 88
  %39 = tail call noundef i32 @_Z30crxDecodeLineWithIQuantizationP10CrxSubbandP8CrxQStep(ptr noundef nonnull %38, ptr noundef %17)
  %.not43 = icmp eq i32 %39, 0
  br i1 %.not43, label %55, label %56

40:                                               ; preds = %25, %10
  %.not44 = icmp eq i32 %1, 0
  br i1 %.not44, label %44, label %41

41:                                               ; preds = %40
  %42 = add nsw i32 %1, -1
  %43 = tail call noundef i32 @_Z21crxIdwt53FilterDecodeP12CrxPlaneCompiP8CrxQStep(ptr noundef nonnull %0, i32 noundef %42, ptr noundef %2)
  %.not46 = icmp eq i32 %43, 0
  br i1 %.not46, label %46, label %56

44:                                               ; preds = %40
  %45 = tail call noundef i32 @_Z30crxDecodeLineWithIQuantizationP10CrxSubbandP8CrxQStep(ptr noundef %15, ptr noundef %17)
  %.not45 = icmp eq i32 %45, 0
  br i1 %.not45, label %46, label %56

46:                                               ; preds = %44, %41
  %47 = getelementptr inbounds nuw i8, ptr %15, i64 88
  %48 = tail call noundef i32 @_Z30crxDecodeLineWithIQuantizationP10CrxSubbandP8CrxQStep(ptr noundef nonnull %47, ptr noundef %17)
  %.not47 = icmp eq i32 %48, 0
  br i1 %.not47, label %49, label %56

49:                                               ; preds = %46
  %50 = getelementptr inbounds nuw i8, ptr %15, i64 176
  %51 = tail call noundef i32 @_Z30crxDecodeLineWithIQuantizationP10CrxSubbandP8CrxQStep(ptr noundef nonnull %50, ptr noundef %17)
  %.not48 = icmp eq i32 %51, 0
  br i1 %.not48, label %52, label %56

52:                                               ; preds = %49
  %53 = getelementptr inbounds nuw i8, ptr %15, i64 264
  %54 = tail call noundef i32 @_Z30crxDecodeLineWithIQuantizationP10CrxSubbandP8CrxQStep(ptr noundef nonnull %53, ptr noundef %17)
  %.not49 = icmp eq i32 %54, 0
  br i1 %.not49, label %55, label %56

55:                                               ; preds = %52, %29, %37
  br label %56

56:                                               ; preds = %55, %32, %35, %37, %41, %44, %52, %49, %46, %3
  %.0 = phi i32 [ 0, %3 ], [ 0, %55 ], [ -1, %32 ], [ -1, %35 ], [ -1, %37 ], [ -1, %41 ], [ -1, %44 ], [ -1, %52 ], [ -1, %49 ], [ -1, %46 ]
  ret i32 %.0
}